; Function Attrs: nounwind uwtable
define internal zeroext i1 @HIDAPI_DriverCombined_UpdateDevice(ptr noundef readonly captures(none) %0) #1 {
  %2 = getelementptr inbounds nuw i8, ptr %0, i64 168
  %3 = load i32, ptr %2, align 8
  %4 = icmp sgt i32 %3, 0
  br i1 %4, label %.lr.ph, label %._crit_edge

.lr.ph:                                           ; preds = %1
  %5 = getelementptr inbounds nuw i8, ptr %0, i64 176
  br label %6

6:                                                ; preds = %.lr.ph, %6
  %indvars.iv = phi i64 [ 0, %.lr.ph ], [ %indvars.iv.next, %6 ]
  %.078 = phi i32 [ 1, %.lr.ph ], [ %spec.select, %6 ]
  %7 = load ptr, ptr %5, align 8
  %8 = getelementptr inbounds nuw ptr, ptr %7, i64 %indvars.iv
  %9 = load ptr, ptr %8, align 8
  %10 = getelementptr inbounds nuw i8, ptr %9, i64 104
  %11 = load ptr, ptr %10, align 8
  %12 = getelementptr inbounds nuw i8, ptr %11, i64 72
  %13 = load ptr, ptr %12, align 8
  %14 = tail call zeroext i1 %13(ptr noundef %9) #4
  %spec.select = select i1 %14, i32 %.078, i32 0
  %indvars.iv.next = add nuw nsw i64 %indvars.iv, 1
  %15 = load i32, ptr %2, align 8
  %16 = sext i32 %15 to i64
  %17 = icmp slt i64 %indvars.iv.next, %16
  br i1 %17, label %6, label %._crit_edge.loopexit, !llvm.loop !3

._crit_edge.loopexit:                             ; preds = %6
  %18 = icmp ne i32 %spec.select, 0
  br label %._crit_edge

._crit_edge:                                      ; preds = %._crit_edge.loopexit, %1
  %.07.lcssa = phi i1 [ true, %1 ], [ %18, %._crit_edge.loopexit ]
  ret i1 %.07.lcssa
}